target datalayout = "e-m:e-p270:32:32-p271:32:32-p272:64:64-i64:64-i128:128-f80:128-n8:16:32:64-S128"
target triple = "x86_64-pc-linux-gnu"

%struct._lv_chart_t = type { %struct._lv_obj_t, %struct.lv_ll_t, %struct.lv_ll_t, [2 x i32], [2 x i32], [2 x i32], [2 x i32], i32, i32, i32, i32, i8 }
%struct._lv_obj_t = type { ptr, ptr, ptr, ptr, ptr, %struct.lv_area_t, i32, i16, i16 }
%struct.lv_area_t = type { i32, i32, i32, i32 }
%struct.lv_ll_t = type { i32, ptr, ptr }

; Function Attrs: nounwind uwtable
define void @lv_chart_set_div_line_count(ptr noundef %0, i8 noundef zeroext %1, i8 noundef zeroext %2) #0 {
  %4 = alloca ptr, align 8
  %5 = alloca i8, align 1
  %6 = alloca i8, align 1
  %7 = alloca ptr, align 8
  %8 = alloca i32, align 4
  store ptr %0, ptr %4, align 8, !tbaa !3
  store i8 %1, ptr %5, align 1, !tbaa !38
  store i8 %2, ptr %6, align 1, !tbaa !38
  br label %9

9:                                                ; preds = %3
  br label %10

10:                                               ; preds = %9
  call void @llvm.lifetime.start.p0(i64 8, ptr %7) #5
  %11 = load ptr, ptr %4, align 8, !tbaa !3
  store ptr %11, ptr %7, align 8, !tbaa !3
  %12 = load ptr, ptr %7, align 8, !tbaa !3
  %13 = getelementptr inbounds nuw %struct._lv_chart_t, ptr %12, i32 0, i32 8
  %14 = load i32, ptr %13, align 4, !tbaa !9
  %15 = load i8, ptr %5, align 1, !tbaa !38
  %16 = zext i8 %15 to i32
  %17 = icmp eq i32 %14, %16
  br i1 %17, label %18, label %26

18:                                               ; preds = %10
  %19 = load ptr, ptr %7, align 8, !tbaa !3
  %20 = getelementptr inbounds nuw %struct._lv_chart_t, ptr %19, i32 0, i32 9
  %21 = load i32, ptr %20, align 8, !tbaa !15
  %22 = load i8, ptr %6, align 1, !tbaa !38
  %23 = zext i8 %22 to i32
  %24 = icmp eq i32 %21, %23
  br i1 %24, label %25, label %26

25:                                               ; preds = %18
  store i32 1, ptr %8, align 4
  br label %36

26:                                               ; preds = %18, %10
  %27 = load i8, ptr %5, align 1, !tbaa !38
  %28 = zext i8 %27 to i32
  %29 = load ptr, ptr %7, align 8, !tbaa !3
  %30 = getelementptr inbounds nuw %struct._lv_chart_t, ptr %29, i32 0, i32 8
  store i32 %28, ptr %30, align 4, !tbaa !9
  %31 = load i8, ptr %6, align 1, !tbaa !38
  %32 = zext i8 %31 to i32
  %33 = load ptr, ptr %7, align 8, !tbaa !3
  %34 = getelementptr inbounds nuw %struct._lv_chart_t, ptr %33, i32 0, i32 9
  store i32 %32, ptr %34, align 8, !tbaa !15
  %35 = load ptr, ptr %4, align 8, !tbaa !3
  call void @lv_obj_invalidate(ptr noundef %35)
  store i32 0, ptr %8, align 4
  br label %36

36:                                               ; preds = %26, %25
  call void @llvm.lifetime.end.p0(i64 8, ptr %7) #5
  %37 = load i32, ptr %8, align 4
  switch i32 %37, label %39 [
    i32 0, label %38
    i32 1, label %38
  ]

38:                                               ; preds = %36, %36
  ret void

39:                                               ; preds = %36
  unreachable
}