; Function Attrs: nounwind uwtable
define void @lv_chart_set_div_line_count(ptr noundef %0, i8 noundef zeroext %1, i8 noundef zeroext %2) local_unnamed_addr #0 {
  %4 = getelementptr inbounds nuw i8, ptr %0, i64 148
  %5 = load i32, ptr %4, align 4, !tbaa !7
  %6 = zext i8 %1 to i32
  %7 = icmp eq i32 %5, %6
  br i1 %7, label %8, label %._crit_edge

._crit_edge:                                      ; preds = %3
  %.pre = zext i8 %2 to i32
  br label %13

8:                                                ; preds = %3
  %9 = getelementptr inbounds nuw i8, ptr %0, i64 152
  %10 = load i32, ptr %9, align 8, !tbaa !14
  %11 = zext i8 %2 to i32
  %12 = icmp eq i32 %10, %11
  br i1 %12, label %15, label %13

13:                                               ; preds = %._crit_edge, %8
  %.pre-phi = phi i32 [ %.pre, %._crit_edge ], [ %11, %8 ]
  store i32 %6, ptr %4, align 4, !tbaa !7
  %14 = getelementptr inbounds nuw i8, ptr %0, i64 152
  store i32 %.pre-phi, ptr %14, align 8, !tbaa !14
  tail call void @lv_obj_invalidate(ptr noundef nonnull %0) #8
  br label %15

15:                                               ; preds = %8, %13
  ret void
}